; Function Attrs: mustprogress uwtable
define noundef i32 @_ZNK6icu_757UVector7indexOfEPvi(ptr nocapture noundef nonnull readonly align 8 dereferenceable(40) %this, ptr noundef %obj, i32 noundef %startIndex) local_unnamed_addr #1 align 2 {
entry:
  %comparer.i = getelementptr inbounds i8, ptr %this, i64 32
  %0 = load ptr, ptr %comparer.i, align 8
  %cmp.not.i = icmp eq ptr %0, null
  %count10.i = getelementptr inbounds i8, ptr %this, i64 8
  %1 = load i32, ptr %count10.i, align 8
  %cmp1115.i = icmp sgt i32 %1, %startIndex
  br i1 %cmp.not.i, label %for.cond9.preheader.i, label %for.cond.preheader.i

for.cond.preheader.i:                             ; preds = %entry
  br i1 %cmp1115.i, label %for.body.lr.ph.i, label %_ZNK6icu_757UVector7indexOfE8UElementia.exit

for.body.lr.ph.i:                                 ; preds = %for.cond.preheader.i
  %elements.i = getelementptr inbounds i8, ptr %this, i64 16
  %2 = sext i32 %startIndex to i64
  br label %for.body.i

for.cond9.preheader.i:                            ; preds = %entry
  br i1 %cmp1115.i, label %for.body12.lr.ph.i, label %_ZNK6icu_757UVector7indexOfE8UElementia.exit

for.body12.lr.ph.i:                               ; preds = %for.cond9.preheader.i
  %elements15.i = getelementptr inbounds i8, ptr %this, i64 16
  %3 = load ptr, ptr %elements15.i, align 8
  %4 = sext i32 %startIndex to i64
  %wide.trip.count32.i = sext i32 %1 to i64
  br label %for.body12.i

for.body.i:                                       ; preds = %for.inc.i, %for.body.lr.ph.i
  %indvars.iv.i = phi i64 [ %2, %for.body.lr.ph.i ], [ %indvars.iv.next.i, %for.inc.i ]
  %5 = load ptr, ptr %comparer.i, align 8
  %6 = load ptr, ptr %elements.i, align 8
  %arrayidx.i = getelementptr inbounds %union.UElement, ptr %6, i64 %indvars.iv.i
  %agg.tmp4.sroa.0.0.copyload.i = load ptr, ptr %arrayidx.i, align 8
  %call.i = tail call noundef signext i8 %5(ptr %obj, ptr %agg.tmp4.sroa.0.0.copyload.i)
  %tobool.not.i = icmp eq i8 %call.i, 0
  br i1 %tobool.not.i, label %for.inc.i, label %return.loopexit36.split.loop.exit38.i

for.inc.i:                                        ; preds = %for.body.i
  %indvars.iv.next.i = add nsw i64 %indvars.iv.i, 1
  %7 = load i32, ptr %count10.i, align 8
  %8 = sext i32 %7 to i64
  %cmp2.i = icmp slt i64 %indvars.iv.next.i, %8
  br i1 %cmp2.i, label %for.body.i, label %_ZNK6icu_757UVector7indexOfE8UElementia.exit, !llvm.loop !17

for.body12.i:                                     ; preds = %for.inc29.i, %for.body12.lr.ph.i
  %indvars.iv26.i = phi i64 [ %indvars.iv.next27.i, %for.inc29.i ], [ %4, %for.body12.lr.ph.i ]
  %arrayidx17.i = getelementptr inbounds %union.UElement, ptr %3, i64 %indvars.iv26.i
  %9 = load ptr, ptr %arrayidx17.i, align 8
  %cmp18.i = icmp eq ptr %9, %obj
  br i1 %cmp18.i, label %return.loopexit34.split.loop.exit40.i, label %for.inc29.i

for.inc29.i:                                      ; preds = %for.body12.i
  %indvars.iv.next27.i = add nsw i64 %indvars.iv26.i, 1
  %exitcond.not.i = icmp eq i64 %indvars.iv.next27.i, %wide.trip.count32.i
  br i1 %exitcond.not.i, label %_ZNK6icu_757UVector7indexOfE8UElementia.exit, label %for.body12.i, !llvm.loop !14

return.loopexit34.split.loop.exit40.i:            ; preds = %for.body12.i
  %10 = trunc i64 %indvars.iv26.i to i32
  br label %_ZNK6icu_757UVector7indexOfE8UElementia.exit

return.loopexit36.split.loop.exit38.i:            ; preds = %for.body.i
  %11 = trunc i64 %indvars.iv.i to i32
  br label %_ZNK6icu_757UVector7indexOfE8UElementia.exit

_ZNK6icu_757UVector7indexOfE8UElementia.exit:     ; preds = %for.inc.i, %for.inc29.i, %for.cond.preheader.i, %for.cond9.preheader.i, %return.loopexit34.split.loop.exit40.i, %return.loopexit36.split.loop.exit38.i
  %retval.0.i = phi i32 [ -1, %for.cond9.preheader.i ], [ -1, %for.cond.preheader.i ], [ %10, %return.loopexit34.split.loop.exit40.i ], [ %11, %return.loopexit36.split.loop.exit38.i ], [ -1, %for.inc29.i ], [ -1, %for.inc.i ]
  ret i32 %retval.0.i
}